target datalayout = "e-m:e-p270:32:32-p271:32:32-p272:64:64-i64:64-i128:128-f80:128-n8:16:32:64-S128"
target triple = "x86_64-pc-linux-gnu"

%struct.testVector = type { ptr, ptr, i64, i64 }
%struct.wc_Sha = type { i32, i32, i32, [16 x i32], [5 x i32], ptr }

@.str.24 = private unnamed_addr constant [4 x i8] c"abc\00", align 1
@.str.34 = private unnamed_addr constant [21 x i8] c"\A9\99>6G\06\81j\BA>%qxP\C2l\9C\D0\D8\9D\00", align 1
@.str.35 = private unnamed_addr constant [57 x i8] c"abcdbcdecdefdefgefghfghighijhijkijkljklmklmnlmnomnopnopq\00", align 1
@.str.36 = private unnamed_addr constant [21 x i8] c"\84\98>D\1C;\D2n\BA\AEJ\A1\F9Q)\E5\E5Fp\F1\00", align 1
@.str.37 = private unnamed_addr constant [65 x i8] c"aaaaaaaaaaaaaaaaaaaaaaaaaaaaaaaaaaaaaaaaaaaaaaaaaaaaaaaaaaaaaaaa\00", align 1
@.str.38 = private unnamed_addr constant [21 x i8] c"\00\98\BA\82K\\\16B{\D7\A1\12*ZD*%\ECdM\00", align 1
@.str.39 = private unnamed_addr constant [129 x i8] c"aaaaaaaaaaaaaaaaaaaaaaaaaaaaaaaaaaaaaaaaaaaaaaaaaaaaaaaaaaaaaaaaaaaaaaaaaaaaaaaaaaaaaaaaaaaaaaaaaaaaaaaaaaaaaaaaaaaaaaaaaaaaaaaa\00", align 1
@.str.40 = private unnamed_addr constant [21 x i8] c"\AD[?\DB\CBRgx\C2\83\9D/\15\1E\A7S\99^&\A0\00", align 1

; Function Attrs: nounwind uwtable
define dso_local i32 @sha_test() #0 {
  %1 = alloca i32, align 4
  %2 = alloca %struct.wc_Sha, align 8
  %3 = alloca [20 x i8], align 16
  %4 = alloca %struct.testVector, align 8
  %5 = alloca %struct.testVector, align 8
  %6 = alloca %struct.testVector, align 8
  %7 = alloca %struct.testVector, align 8
  %8 = alloca [4 x %struct.testVector], align 16
  %9 = alloca i32, align 4
  %10 = alloca i32, align 4
  %11 = alloca i32, align 4
  %12 = alloca i32, align 4
  call void @llvm.lifetime.start.p0(i64 104, ptr %2) #5
  call void @llvm.lifetime.start.p0(i64 20, ptr %3) #5
  call void @llvm.lifetime.start.p0(i64 32, ptr %4) #5
  call void @llvm.lifetime.start.p0(i64 32, ptr %5) #5
  call void @llvm.lifetime.start.p0(i64 32, ptr %6) #5
  call void @llvm.lifetime.start.p0(i64 32, ptr %7) #5
  call void @llvm.lifetime.start.p0(i64 128, ptr %8) #5
  call void @llvm.lifetime.start.p0(i64 4, ptr %9) #5
  store i32 0, ptr %9, align 4, !tbaa !4
  call void @llvm.lifetime.start.p0(i64 4, ptr %10) #5
  store i32 4, ptr %10, align 4, !tbaa !4
  call void @llvm.lifetime.start.p0(i64 4, ptr %11) #5
  %13 = getelementptr inbounds nuw %struct.testVector, ptr %4, i32 0, i32 0
  store ptr @.str.24, ptr %13, align 8, !tbaa !8
  %14 = getelementptr inbounds nuw %struct.testVector, ptr %4, i32 0, i32 1
  store ptr @.str.34, ptr %14, align 8, !tbaa !13
  %15 = getelementptr inbounds nuw %struct.testVector, ptr %4, i32 0, i32 0
  %16 = load ptr, ptr %15, align 8, !tbaa !8
  %17 = call i64 @strlen(ptr noundef %16) #6
  %18 = getelementptr inbounds nuw %struct.testVector, ptr %4, i32 0, i32 2
  store i64 %17, ptr %18, align 8, !tbaa !14
  %19 = getelementptr inbounds nuw %struct.testVector, ptr %4, i32 0, i32 1
  %20 = load ptr, ptr %19, align 8, !tbaa !13
  %21 = call i64 @strlen(ptr noundef %20) #6
  %22 = getelementptr inbounds nuw %struct.testVector, ptr %4, i32 0, i32 3
  store i64 %21, ptr %22, align 8, !tbaa !15
  %23 = getelementptr inbounds nuw %struct.testVector, ptr %5, i32 0, i32 0
  store ptr @.str.35, ptr %23, align 8, !tbaa !8
  %24 = getelementptr inbounds nuw %struct.testVector, ptr %5, i32 0, i32 1
  store ptr @.str.36, ptr %24, align 8, !tbaa !13
  %25 = getelementptr inbounds nuw %struct.testVector, ptr %5, i32 0, i32 0
  %26 = load ptr, ptr %25, align 8, !tbaa !8
  %27 = call i64 @strlen(ptr noundef %26) #6
  %28 = getelementptr inbounds nuw %struct.testVector, ptr %5, i32 0, i32 2
  store i64 %27, ptr %28, align 8, !tbaa !14
  %29 = getelementptr inbounds nuw %struct.testVector, ptr %5, i32 0, i32 1
  %30 = load ptr, ptr %29, align 8, !tbaa !13
  %31 = call i64 @strlen(ptr noundef %30) #6
  %32 = getelementptr inbounds nuw %struct.testVector, ptr %5, i32 0, i32 3
  store i64 %31, ptr %32, align 8, !tbaa !15
  %33 = getelementptr inbounds nuw %struct.testVector, ptr %6, i32 0, i32 0
  store ptr @.str.37, ptr %33, align 8, !tbaa !8
  %34 = getelementptr inbounds nuw %struct.testVector, ptr %6, i32 0, i32 1
  store ptr @.str.38, ptr %34, align 8, !tbaa !13
  %35 = getelementptr inbounds nuw %struct.testVector, ptr %6, i32 0, i32 0
  %36 = load ptr, ptr %35, align 8, !tbaa !8
  %37 = call i64 @strlen(ptr noundef %36) #6
  %38 = getelementptr inbounds nuw %struct.testVector, ptr %6, i32 0, i32 2
  store i64 %37, ptr %38, align 8, !tbaa !14
  %39 = getelementptr inbounds nuw %struct.testVector, ptr %6, i32 0, i32 1
  %40 = load ptr, ptr %39, align 8, !tbaa !13
  %41 = call i64 @strlen(ptr noundef %40) #6
  %42 = getelementptr inbounds nuw %struct.testVector, ptr %6, i32 0, i32 3
  store i64 %41, ptr %42, align 8, !tbaa !15
  %43 = getelementptr inbounds nuw %struct.testVector, ptr %7, i32 0, i32 0
  store ptr @.str.39, ptr %43, align 8, !tbaa !8
  %44 = getelementptr inbounds nuw %struct.testVector, ptr %7, i32 0, i32 1
  store ptr @.str.40, ptr %44, align 8, !tbaa !13
  %45 = getelementptr inbounds nuw %struct.testVector, ptr %7, i32 0, i32 0
  %46 = load ptr, ptr %45, align 8, !tbaa !8
  %47 = call i64 @strlen(ptr noundef %46) #6
  %48 = getelementptr inbounds nuw %struct.testVector, ptr %7, i32 0, i32 2
  store i64 %47, ptr %48, align 8, !tbaa !14
  %49 = getelementptr inbounds nuw %struct.testVector, ptr %7, i32 0, i32 1
  %50 = load ptr, ptr %49, align 8, !tbaa !13
  %51 = call i64 @strlen(ptr noundef %50) #6
  %52 = getelementptr inbounds nuw %struct.testVector, ptr %7, i32 0, i32 3
  store i64 %51, ptr %52, align 8, !tbaa !15
  %53 = getelementptr inbounds [4 x %struct.testVector], ptr %8, i64 0, i64 0
  call void @llvm.memcpy.p0.p0.i64(ptr align 16 %53, ptr align 8 %4, i64 32, i1 false), !tbaa.struct !16
  %54 = getelementptr inbounds [4 x %struct.testVector], ptr %8, i64 0, i64 1
  call void @llvm.memcpy.p0.p0.i64(ptr align 16 %54, ptr align 8 %5, i64 32, i1 false), !tbaa.struct !16
  %55 = getelementptr inbounds [4 x %struct.testVector], ptr %8, i64 0, i64 2
  call void @llvm.memcpy.p0.p0.i64(ptr align 16 %55, ptr align 8 %6, i64 32, i1 false), !tbaa.struct !16
  %56 = getelementptr inbounds [4 x %struct.testVector], ptr %8, i64 0, i64 3
  call void @llvm.memcpy.p0.p0.i64(ptr align 16 %56, ptr align 8 %7, i64 32, i1 false), !tbaa.struct !16
  %57 = call i32 @wc_InitSha(ptr noundef %2)
  store i32 %57, ptr %9, align 4, !tbaa !4
  %58 = load i32, ptr %9, align 4, !tbaa !4
  %59 = icmp ne i32 %58, 0
  br i1 %59, label %60, label %62

60:                                               ; preds = %0
  %61 = load i32, ptr %9, align 4, !tbaa !4
  store i32 %61, ptr %1, align 4
  store i32 1, ptr %12, align 4
  br label %98

62:                                               ; preds = %0
  store i32 0, ptr %11, align 4, !tbaa !4
  br label %63

63:                                               ; preds = %94, %62
  %64 = load i32, ptr %11, align 4, !tbaa !4
  %65 = load i32, ptr %10, align 4, !tbaa !4
  %66 = icmp slt i32 %64, %65
  br i1 %66, label %67, label %97

67:                                               ; preds = %63
  %68 = load i32, ptr %11, align 4, !tbaa !4
  %69 = sext i32 %68 to i64
  %70 = getelementptr inbounds [4 x %struct.testVector], ptr %8, i64 0, i64 %69
  %71 = getelementptr inbounds nuw %struct.testVector, ptr %70, i32 0, i32 0
  %72 = load ptr, ptr %71, align 16, !tbaa !8
  %73 = load i32, ptr %11, align 4, !tbaa !4
  %74 = sext i32 %73 to i64
  %75 = getelementptr inbounds [4 x %struct.testVector], ptr %8, i64 0, i64 %74
  %76 = getelementptr inbounds nuw %struct.testVector, ptr %75, i32 0, i32 2
  %77 = load i64, ptr %76, align 16, !tbaa !14
  %78 = trunc i64 %77 to i32
  %79 = call i32 @wc_ShaUpdate(ptr noundef %2, ptr noundef %72, i32 noundef %78)
  %80 = getelementptr inbounds [20 x i8], ptr %3, i64 0, i64 0
  %81 = call i32 @wc_ShaFinal(ptr noundef %2, ptr noundef %80)
  %82 = getelementptr inbounds [20 x i8], ptr %3, i64 0, i64 0
  %83 = load i32, ptr %11, align 4, !tbaa !4
  %84 = sext i32 %83 to i64
  %85 = getelementptr inbounds [4 x %struct.testVector], ptr %8, i64 0, i64 %84
  %86 = getelementptr inbounds nuw %struct.testVector, ptr %85, i32 0, i32 1
  %87 = load ptr, ptr %86, align 8, !tbaa !13
  %88 = call i32 @memcmp(ptr noundef %82, ptr noundef %87, i64 noundef 20) #6
  %89 = icmp ne i32 %88, 0
  br i1 %89, label %90, label %93

90:                                               ; preds = %67
  %91 = load i32, ptr %11, align 4, !tbaa !4
  %92 = sub nsw i32 -10, %91
  store i32 %92, ptr %1, align 4
  store i32 1, ptr %12, align 4
  br label %98

93:                                               ; preds = %67
  br label %94

94:                                               ; preds = %93
  %95 = load i32, ptr %11, align 4, !tbaa !4
  %96 = add nsw i32 %95, 1
  store i32 %96, ptr %11, align 4, !tbaa !4
  br label %63, !llvm.loop !21

97:                                               ; preds = %63
  call void @wc_ShaFree(ptr noundef %2)
  store i32 0, ptr %1, align 4
  store i32 1, ptr %12, align 4
  br label %98

98:                                               ; preds = %97, %90, %60
  call void @llvm.lifetime.end.p0(i64 4, ptr %11) #5
  call void @llvm.lifetime.end.p0(i64 4, ptr %10) #5
  call void @llvm.lifetime.end.p0(i64 4, ptr %9) #5
  call void @llvm.lifetime.end.p0(i64 128, ptr %8) #5
  call void @llvm.lifetime.end.p0(i64 32, ptr %7) #5
  call void @llvm.lifetime.end.p0(i64 32, ptr %6) #5
  call void @llvm.lifetime.end.p0(i64 32, ptr %5) #5
  call void @llvm.lifetime.end.p0(i64 32, ptr %4) #5
  call void @llvm.lifetime.end.p0(i64 20, ptr %3) #5
  call void @llvm.lifetime.end.p0(i64 104, ptr %2) #5
  %99 = load i32, ptr %1, align 4
  ret i32 %99
}