; Function Attrs: nounwind uwtable
define dso_local i32 @sha_test() local_unnamed_addr #0 {
  %1 = alloca %struct.wc_Sha, align 8
  %2 = alloca [20 x i8], align 16
  %3 = alloca [4 x %struct.testVector], align 16
  call void @llvm.lifetime.start.p0(i64 104, ptr nonnull %1) #6
  call void @llvm.lifetime.start.p0(i64 20, ptr nonnull %2) #6
  call void @llvm.lifetime.start.p0(i64 128, ptr nonnull %3) #6
  store ptr @.str.24, ptr %3, align 16, !tbaa !4
  %.sroa.518.0..sroa_idx = getelementptr inbounds nuw i8, ptr %3, i64 8
  store ptr @.str.34, ptr %.sroa.518.0..sroa_idx, align 8, !tbaa !4
  %.sroa.719.0..sroa_idx = getelementptr inbounds nuw i8, ptr %3, i64 16
  store i64 3, ptr %.sroa.719.0..sroa_idx, align 16, !tbaa !9
  %4 = getelementptr inbounds nuw i8, ptr %3, i64 32
  store ptr @.str.35, ptr %4, align 16, !tbaa !4
  %.sroa.514.0..sroa_idx = getelementptr inbounds nuw i8, ptr %3, i64 40
  store ptr @.str.36, ptr %.sroa.514.0..sroa_idx, align 8, !tbaa !4
  %.sroa.715.0..sroa_idx = getelementptr inbounds nuw i8, ptr %3, i64 48
  store i64 56, ptr %.sroa.715.0..sroa_idx, align 16, !tbaa !9
  %5 = getelementptr inbounds nuw i8, ptr %3, i64 64
  store ptr @.str.37, ptr %5, align 16, !tbaa !4
  %.sroa.510.0..sroa_idx = getelementptr inbounds nuw i8, ptr %3, i64 72
  store ptr @.str.38, ptr %.sroa.510.0..sroa_idx, align 8, !tbaa !4
  %.sroa.711.0..sroa_idx = getelementptr inbounds nuw i8, ptr %3, i64 80
  store i64 64, ptr %.sroa.711.0..sroa_idx, align 16, !tbaa !9
  %6 = getelementptr inbounds nuw i8, ptr %3, i64 96
  store ptr @.str.39, ptr %6, align 16, !tbaa !4
  %.sroa.5.0..sroa_idx = getelementptr inbounds nuw i8, ptr %3, i64 104
  store ptr @.str.40, ptr %.sroa.5.0..sroa_idx, align 8, !tbaa !4
  %.sroa.7.0..sroa_idx = getelementptr inbounds nuw i8, ptr %3, i64 112
  store i64 128, ptr %.sroa.7.0..sroa_idx, align 16, !tbaa !9
  %7 = call i32 @wc_InitSha(ptr noundef nonnull %1) #6
  %.not = icmp eq i32 %7, 0
  br i1 %.not, label %.preheader, label %22

.preheader:                                       ; preds = %0, %20
  %indvars.iv = phi i64 [ %indvars.iv.next, %20 ], [ 0, %0 ]
  %8 = getelementptr inbounds nuw [4 x %struct.testVector], ptr %3, i64 0, i64 %indvars.iv
  %9 = load ptr, ptr %8, align 16, !tbaa !11
  %10 = getelementptr inbounds nuw i8, ptr %8, i64 16
  %11 = load i64, ptr %10, align 16, !tbaa !13
  %12 = trunc i64 %11 to i32
  %13 = call i32 @wc_ShaUpdate(ptr noundef nonnull %1, ptr noundef %9, i32 noundef %12) #6
  %14 = call i32 @wc_ShaFinal(ptr noundef nonnull %1, ptr noundef nonnull %2) #6
  %15 = getelementptr inbounds nuw i8, ptr %8, i64 8
  %16 = load ptr, ptr %15, align 8, !tbaa !14
  %bcmp = call i32 @bcmp(ptr noundef nonnull dereferenceable(20) %2, ptr noundef nonnull dereferenceable(20) %16, i64 20)
  %.not24 = icmp eq i32 %bcmp, 0
  br i1 %.not24, label %20, label %17

17:                                               ; preds = %.preheader
  %18 = trunc nuw nsw i64 %indvars.iv to i32
  %19 = sub nuw nsw i32 -10, %18
  br label %22

20:                                               ; preds = %.preheader
  %indvars.iv.next = add nuw nsw i64 %indvars.iv, 1
  %exitcond.not = icmp eq i64 %indvars.iv.next, 4
  br i1 %exitcond.not, label %21, label %.preheader, !llvm.loop !17

21:                                               ; preds = %20
  call void @wc_ShaFree(ptr noundef nonnull %1) #6
  br label %22

22:                                               ; preds = %0, %21, %17
  %.022 = phi i32 [ %19, %17 ], [ 0, %21 ], [ %7, %0 ]
  call void @llvm.lifetime.end.p0(i64 128, ptr nonnull %3) #6
  call void @llvm.lifetime.end.p0(i64 20, ptr nonnull %2) #6
  call void @llvm.lifetime.end.p0(i64 104, ptr nonnull %1) #6
  ret i32 %.022
}